target datalayout = "e-m:e-p270:32:32-p271:32:32-p272:64:64-i64:64-i128:128-f80:128-n8:16:32:64-S128"
target triple = "x86_64-pc-linux-gnu"

%struct.AVFilterContext = type { ptr, ptr, ptr, ptr, ptr, i32, ptr, ptr, i32, ptr, ptr, i32, i32, ptr, ptr, ptr, ptr, i32, ptr, i32, i32 }
%struct.IdentityContext = type { ptr, %struct.FFFrameSync, double, double, double, [4 x double], i64, i32, i32, [4 x i8], [4 x i32], [4 x i8], i32, i32, [4 x i32], [4 x i32], ptr, ptr, ptr, ptr }
%struct.FFFrameSync = type { ptr, ptr, i32, %struct.AVRational, i64, ptr, ptr, i32, i32, i8, i8, ptr, i32, i32, i32, i32 }
%struct.AVRational = type { i32, i32 }
%struct.AVFilter = type { ptr, ptr, ptr, ptr, ptr, i32 }

@.str.15 = private unnamed_addr constant [7 x i8] c" %c:%f\00", align 1
@.str.16 = private unnamed_addr constant [31 x i8] c"%s%s average:%f min:%f max:%f\0A\00", align 1

; Function Attrs: cold nounwind optsize uwtable
define internal void @uninit(ptr noundef %0) #1 {
  %2 = alloca ptr, align 8
  %3 = alloca ptr, align 8
  %4 = alloca [256 x i8], align 16
  %5 = alloca i32, align 4
  %6 = alloca i32, align 4
  %7 = alloca i32, align 4
  store ptr %0, ptr %2, align 8, !tbaa !4
  call void @llvm.lifetime.start.p0(i64 8, ptr %3) #10
  %8 = load ptr, ptr %2, align 8, !tbaa !4
  %9 = getelementptr inbounds nuw %struct.AVFilterContext, ptr %8, i32 0, i32 9
  %10 = load ptr, ptr %9, align 8, !tbaa !9
  store ptr %10, ptr %3, align 8, !tbaa !22
  %11 = load ptr, ptr %3, align 8, !tbaa !22
  %12 = getelementptr inbounds nuw %struct.IdentityContext, ptr %11, i32 0, i32 6
  %13 = load i64, ptr %12, align 8, !tbaa !32
  %14 = icmp ugt i64 %13, 0
  br i1 %14, label %15, label %86

15:                                               ; preds = %1
  call void @llvm.lifetime.start.p0(i64 256, ptr %4) #10
  %16 = getelementptr inbounds [256 x i8], ptr %4, i64 0, i64 0
  store i8 0, ptr %16, align 16, !tbaa !33
  call void @llvm.lifetime.start.p0(i64 4, ptr %5) #10
  store i32 0, ptr %5, align 4, !tbaa !34
  br label %17

17:                                               ; preds = %61, %15
  %18 = load i32, ptr %5, align 4, !tbaa !34
  %19 = load ptr, ptr %3, align 8, !tbaa !22
  %20 = getelementptr inbounds nuw %struct.IdentityContext, ptr %19, i32 0, i32 12
  %21 = load i32, ptr %20, align 8, !tbaa !35
  %22 = icmp slt i32 %18, %21
  br i1 %22, label %24, label %23

23:                                               ; preds = %17
  call void @llvm.lifetime.end.p0(i64 4, ptr %5) #10
  br label %64

24:                                               ; preds = %17
  call void @llvm.lifetime.start.p0(i64 4, ptr %6) #10
  %25 = load ptr, ptr %3, align 8, !tbaa !22
  %26 = getelementptr inbounds nuw %struct.IdentityContext, ptr %25, i32 0, i32 7
  %27 = load i32, ptr %26, align 8, !tbaa !36
  %28 = icmp ne i32 %27, 0
  br i1 %28, label %29, label %37

29:                                               ; preds = %24
  %30 = load ptr, ptr %3, align 8, !tbaa !22
  %31 = getelementptr inbounds nuw %struct.IdentityContext, ptr %30, i32 0, i32 9
  %32 = load i32, ptr %5, align 4, !tbaa !34
  %33 = sext i32 %32 to i64
  %34 = getelementptr inbounds [4 x i8], ptr %31, i64 0, i64 %33
  %35 = load i8, ptr %34, align 1, !tbaa !33
  %36 = zext i8 %35 to i32
  br label %39

37:                                               ; preds = %24
  %38 = load i32, ptr %5, align 4, !tbaa !34
  br label %39

39:                                               ; preds = %37, %29
  %40 = phi i32 [ %36, %29 ], [ %38, %37 ]
  store i32 %40, ptr %6, align 4, !tbaa !34
  %41 = getelementptr inbounds [256 x i8], ptr %4, i64 0, i64 0
  %42 = load ptr, ptr %3, align 8, !tbaa !22
  %43 = getelementptr inbounds nuw %struct.IdentityContext, ptr %42, i32 0, i32 11
  %44 = load i32, ptr %5, align 4, !tbaa !34
  %45 = sext i32 %44 to i64
  %46 = getelementptr inbounds [4 x i8], ptr %43, i64 0, i64 %45
  %47 = load i8, ptr %46, align 1, !tbaa !33
  %48 = sext i8 %47 to i32
  %49 = load ptr, ptr %3, align 8, !tbaa !22
  %50 = getelementptr inbounds nuw %struct.IdentityContext, ptr %49, i32 0, i32 5
  %51 = load i32, ptr %6, align 4, !tbaa !34
  %52 = sext i32 %51 to i64
  %53 = getelementptr inbounds [4 x double], ptr %50, i64 0, i64 %52
  %54 = load double, ptr %53, align 8, !tbaa !37
  %55 = load ptr, ptr %3, align 8, !tbaa !22
  %56 = getelementptr inbounds nuw %struct.IdentityContext, ptr %55, i32 0, i32 6
  %57 = load i64, ptr %56, align 8, !tbaa !32
  %58 = uitofp i64 %57 to double
  %59 = fdiv nsz double %54, %58
  %60 = call i64 (ptr, i64, ptr, ...) @av_strlcatf(ptr noundef %41, i64 noundef 256, ptr noundef @.str.15, i32 noundef %48, double noundef %59)
  call void @llvm.lifetime.end.p0(i64 4, ptr %6) #10
  br label %61

61:                                               ; preds = %39
  %62 = load i32, ptr %5, align 4, !tbaa !34
  %63 = add nsw i32 %62, 1
  store i32 %63, ptr %5, align 4, !tbaa !34
  br label %17, !llvm.loop !38

64:                                               ; preds = %23
  %65 = load ptr, ptr %2, align 8, !tbaa !4
  %66 = load ptr, ptr %2, align 8, !tbaa !4
  %67 = getelementptr inbounds nuw %struct.AVFilterContext, ptr %66, i32 0, i32 1
  %68 = load ptr, ptr %67, align 8, !tbaa !40
  %69 = getelementptr inbounds nuw %struct.AVFilter, ptr %68, i32 0, i32 0
  %70 = load ptr, ptr %69, align 8, !tbaa !41
  %71 = getelementptr inbounds [256 x i8], ptr %4, i64 0, i64 0
  %72 = load ptr, ptr %3, align 8, !tbaa !22
  %73 = getelementptr inbounds nuw %struct.IdentityContext, ptr %72, i32 0, i32 2
  %74 = load double, ptr %73, align 8, !tbaa !43
  %75 = load ptr, ptr %3, align 8, !tbaa !22
  %76 = getelementptr inbounds nuw %struct.IdentityContext, ptr %75, i32 0, i32 6
  %77 = load i64, ptr %76, align 8, !tbaa !32
  %78 = uitofp i64 %77 to double
  %79 = fdiv nsz double %74, %78
  %80 = load ptr, ptr %3, align 8, !tbaa !22
  %81 = getelementptr inbounds nuw %struct.IdentityContext, ptr %80, i32 0, i32 3
  %82 = load double, ptr %81, align 8, !tbaa !44
  %83 = load ptr, ptr %3, align 8, !tbaa !22
  %84 = getelementptr inbounds nuw %struct.IdentityContext, ptr %83, i32 0, i32 4
  %85 = load double, ptr %84, align 8, !tbaa !45
  call void (ptr, i32, ptr, ...) @av_log(ptr noundef %65, i32 noundef 32, ptr noundef @.str.16, ptr noundef %70, ptr noundef %71, double noundef %79, double noundef %82, double noundef %85)
  call void @llvm.lifetime.end.p0(i64 256, ptr %4) #10
  br label %86

86:                                               ; preds = %64, %1
  %87 = load ptr, ptr %3, align 8, !tbaa !22
  %88 = getelementptr inbounds nuw %struct.IdentityContext, ptr %87, i32 0, i32 1
  call void @ff_framesync_uninit(ptr noundef %88)
  call void @llvm.lifetime.start.p0(i64 4, ptr %7) #10
  store i32 0, ptr %7, align 4, !tbaa !34
  br label %89

89:                                               ; preds = %110, %86
  %90 = load i32, ptr %7, align 4, !tbaa !34
  %91 = load ptr, ptr %3, align 8, !tbaa !22
  %92 = getelementptr inbounds nuw %struct.IdentityContext, ptr %91, i32 0, i32 13
  %93 = load i32, ptr %92, align 4, !tbaa !46
  %94 = icmp slt i32 %90, %93
  br i1 %94, label %95, label %100

95:                                               ; preds = %89
  %96 = load ptr, ptr %3, align 8, !tbaa !22
  %97 = getelementptr inbounds nuw %struct.IdentityContext, ptr %96, i32 0, i32 16
  %98 = load ptr, ptr %97, align 8, !tbaa !47
  %99 = icmp ne ptr %98, null
  br label %100

100:                                              ; preds = %95, %89
  %101 = phi i1 [ false, %89 ], [ %99, %95 ]
  br i1 %101, label %103, label %102

102:                                              ; preds = %100
  call void @llvm.lifetime.end.p0(i64 4, ptr %7) #10
  br label %113

103:                                              ; preds = %100
  %104 = load ptr, ptr %3, align 8, !tbaa !22
  %105 = getelementptr inbounds nuw %struct.IdentityContext, ptr %104, i32 0, i32 16
  %106 = load ptr, ptr %105, align 8, !tbaa !47
  %107 = load i32, ptr %7, align 4, !tbaa !34
  %108 = sext i32 %107 to i64
  %109 = getelementptr inbounds ptr, ptr %106, i64 %108
  call void @av_freep(ptr noundef %109)
  br label %110

110:                                              ; preds = %103
  %111 = load i32, ptr %7, align 4, !tbaa !34
  %112 = add nsw i32 %111, 1
  store i32 %112, ptr %7, align 4, !tbaa !34
  br label %89, !llvm.loop !48

113:                                              ; preds = %102
  %114 = load ptr, ptr %3, align 8, !tbaa !22
  %115 = getelementptr inbounds nuw %struct.IdentityContext, ptr %114, i32 0, i32 16
  call void @av_freep(ptr noundef %115)
  call void @llvm.lifetime.end.p0(i64 8, ptr %3) #10
  ret void
}