; Function Attrs: cold nounwind optsize uwtable
define internal void @uninit(ptr noundef %0) #2 {
  %2 = alloca [256 x i8], align 16
  %3 = getelementptr inbounds nuw i8, ptr %0, i64 72
  %4 = load ptr, ptr %3, align 8, !tbaa !4
  %5 = getelementptr inbounds nuw i8, ptr %4, i64 160
  %6 = load i64, ptr %5, align 8, !tbaa !29
  %.not = icmp eq i64 %6, 0
  br i1 %.not, label %48, label %7

7:                                                ; preds = %1
  call void @llvm.lifetime.start.p0(i64 256, ptr nonnull %2) #12
  store i8 0, ptr %2, align 16, !tbaa !30
  %8 = getelementptr inbounds nuw i8, ptr %4, i64 200
  %9 = load i32, ptr %8, align 8, !tbaa !31
  %10 = icmp sgt i32 %9, 0
  br i1 %10, label %.lr.ph, label %._crit_edge

.lr.ph:                                           ; preds = %7
  %11 = getelementptr inbounds nuw i8, ptr %4, i64 168
  %12 = getelementptr inbounds nuw i8, ptr %4, i64 176
  %13 = getelementptr inbounds nuw i8, ptr %4, i64 196
  %14 = getelementptr inbounds nuw i8, ptr %4, i64 128
  br label %27

._crit_edge.loopexit:                             ; preds = %33
  %.pre = load i64, ptr %5, align 8, !tbaa !29
  br label %._crit_edge

._crit_edge:                                      ; preds = %._crit_edge.loopexit, %7
  %15 = phi i64 [ %.pre, %._crit_edge.loopexit ], [ %6, %7 ]
  %16 = getelementptr inbounds nuw i8, ptr %0, i64 8
  %17 = load ptr, ptr %16, align 8, !tbaa !32
  %18 = load ptr, ptr %17, align 8, !tbaa !33
  %19 = getelementptr inbounds nuw i8, ptr %4, i64 104
  %20 = load double, ptr %19, align 8, !tbaa !35
  %21 = uitofp i64 %15 to double
  %22 = fdiv nsz double %20, %21
  %23 = getelementptr inbounds nuw i8, ptr %4, i64 112
  %24 = load double, ptr %23, align 8, !tbaa !36
  %25 = getelementptr inbounds nuw i8, ptr %4, i64 120
  %26 = load double, ptr %25, align 8, !tbaa !37
  call void (ptr, i32, ptr, ...) @av_log(ptr noundef %0, i32 noundef 32, ptr noundef nonnull @.str.16, ptr noundef %18, ptr noundef nonnull %2, double noundef %22, double noundef %24, double noundef %26) #12
  call void @llvm.lifetime.end.p0(i64 256, ptr nonnull %2) #12
  br label %48

27:                                               ; preds = %.lr.ph, %33
  %indvars.iv = phi i64 [ 0, %.lr.ph ], [ %indvars.iv.next, %33 ]
  %28 = load i32, ptr %11, align 8, !tbaa !38
  %.not30 = icmp eq i32 %28, 0
  br i1 %.not30, label %33, label %29

29:                                               ; preds = %27
  %30 = getelementptr inbounds nuw [4 x i8], ptr %12, i64 0, i64 %indvars.iv
  %31 = load i8, ptr %30, align 1, !tbaa !30
  %32 = zext i8 %31 to i64
  br label %33

33:                                               ; preds = %27, %29
  %34 = phi i64 [ %32, %29 ], [ %indvars.iv, %27 ]
  %35 = getelementptr inbounds nuw [4 x i8], ptr %13, i64 0, i64 %indvars.iv
  %36 = load i8, ptr %35, align 1, !tbaa !30
  %37 = sext i8 %36 to i32
  %38 = and i64 %34, 4294967295
  %39 = getelementptr inbounds nuw [4 x double], ptr %14, i64 0, i64 %38
  %40 = load double, ptr %39, align 8, !tbaa !39
  %41 = load i64, ptr %5, align 8, !tbaa !29
  %42 = uitofp i64 %41 to double
  %43 = fdiv nsz double %40, %42
  %44 = call i64 (ptr, i64, ptr, ...) @av_strlcatf(ptr noundef nonnull %2, i64 noundef 256, ptr noundef nonnull @.str.15, i32 noundef %37, double noundef %43) #12
  %indvars.iv.next = add nuw nsw i64 %indvars.iv, 1
  %45 = load i32, ptr %8, align 8, !tbaa !31
  %46 = sext i32 %45 to i64
  %47 = icmp slt i64 %indvars.iv.next, %46
  br i1 %47, label %27, label %._crit_edge.loopexit, !llvm.loop !40

48:                                               ; preds = %._crit_edge, %1
  %49 = getelementptr inbounds nuw i8, ptr %4, i64 8
  call void @ff_framesync_uninit(ptr noundef nonnull %49) #12
  %50 = getelementptr inbounds nuw i8, ptr %4, i64 240
  %51 = getelementptr inbounds nuw i8, ptr %4, i64 204
  %52 = load i32, ptr %51, align 4, !tbaa !42
  %53 = icmp sgt i32 %52, 0
  br i1 %53, label %.lr.ph34, label %.critedge

.lr.ph34:                                         ; preds = %48, %55
  %indvars.iv37 = phi i64 [ %indvars.iv.next38, %55 ], [ 0, %48 ]
  %54 = load ptr, ptr %50, align 8, !tbaa !43
  %.not29 = icmp eq ptr %54, null
  br i1 %.not29, label %.critedge, label %55

.critedge:                                        ; preds = %.lr.ph34, %55, %48
  call void @av_freep(ptr noundef nonnull %50) #12
  ret void

55:                                               ; preds = %.lr.ph34
  %56 = getelementptr inbounds nuw ptr, ptr %54, i64 %indvars.iv37
  call void @av_freep(ptr noundef nonnull %56) #12
  %indvars.iv.next38 = add nuw nsw i64 %indvars.iv37, 1
  %57 = load i32, ptr %51, align 4, !tbaa !42
  %58 = sext i32 %57 to i64
  %59 = icmp slt i64 %indvars.iv.next38, %58
  br i1 %59, label %.lr.ph34, label %.critedge, !llvm.loop !44
}